target datalayout = "e-m:e-p270:32:32-p271:32:32-p272:64:64-i64:64-i128:128-f80:128-n8:16:32:64-S128"
target triple = "x86_64-pc-linux-gnu"

%struct._object = type { %union.anon, ptr }
%union.anon = type { i64 }
%struct._structmodulestate = type { ptr, ptr, ptr, ptr }
%struct.PyModuleObject = type { %struct._object, ptr, ptr, ptr, ptr, ptr }

; Function Attrs: inlinehint nounwind uwtable
define internal ptr @_PyModule_GetState(ptr noundef %0) #2 {
  %2 = alloca ptr, align 8
  store ptr %0, ptr %2, align 8, !tbaa !3
  %3 = load ptr, ptr %2, align 8, !tbaa !3
  %4 = getelementptr inbounds nuw %struct.PyModuleObject, ptr %3, i32 0, i32 3
  %5 = load ptr, ptr %4, align 8, !tbaa !24
  ret ptr %5
}

; Function Attrs: inlinehint nounwind uwtable
define internal ptr @get_struct_state(ptr noundef %0) #2 {
  %2 = alloca ptr, align 8
  %3 = alloca ptr, align 8
  store ptr %0, ptr %2, align 8, !tbaa !3
  call void @llvm.lifetime.start.p0(i64 8, ptr %3) #8
  %4 = load ptr, ptr %2, align 8, !tbaa !3
  %5 = call ptr @_PyModule_GetState(ptr noundef %4)
  store ptr %5, ptr %3, align 8, !tbaa !8
  %6 = load ptr, ptr %3, align 8, !tbaa !8
  call void @llvm.lifetime.end.p0(i64 8, ptr %3) #8
  ret ptr %6
}

; Function Attrs: nounwind uwtable
define internal i32 @_structmodule_traverse(ptr noundef %0, ptr noundef %1, ptr noundef %2) #0 {
  %4 = alloca i32, align 4
  %5 = alloca ptr, align 8
  %6 = alloca ptr, align 8
  %7 = alloca ptr, align 8
  %8 = alloca ptr, align 8
  %9 = alloca i32, align 4
  %10 = alloca i32, align 4
  %11 = alloca i32, align 4
  %12 = alloca i32, align 4
  %13 = alloca i32, align 4
  store ptr %0, ptr %5, align 8, !tbaa !3
  store ptr %1, ptr %6, align 8, !tbaa !8
  store ptr %2, ptr %7, align 8, !tbaa !8
  call void @llvm.lifetime.start.p0(i64 8, ptr %8) #8
  %14 = load ptr, ptr %5, align 8, !tbaa !3
  %15 = call ptr @get_struct_state(ptr noundef %14)
  store ptr %15, ptr %8, align 8, !tbaa !8
  %16 = load ptr, ptr %8, align 8, !tbaa !8
  %17 = icmp ne ptr %16, null
  br i1 %17, label %18, label %111

18:                                               ; preds = %3
  br label %19

19:                                               ; preds = %18
  %20 = load ptr, ptr %8, align 8, !tbaa !8
  %21 = getelementptr inbounds nuw %struct._structmodulestate, ptr %20, i32 0, i32 0
  %22 = load ptr, ptr %21, align 8, !tbaa !9
  %23 = icmp ne ptr %22, null
  br i1 %23, label %24, label %39

24:                                               ; preds = %19
  call void @llvm.lifetime.start.p0(i64 4, ptr %9) #8
  %25 = load ptr, ptr %6, align 8, !tbaa !8
  %26 = load ptr, ptr %8, align 8, !tbaa !8
  %27 = getelementptr inbounds nuw %struct._structmodulestate, ptr %26, i32 0, i32 0
  %28 = load ptr, ptr %27, align 8, !tbaa !9
  %29 = load ptr, ptr %7, align 8, !tbaa !8
  %30 = call i32 %25(ptr noundef %28, ptr noundef %29)
  store i32 %30, ptr %9, align 4, !tbaa !11
  %31 = load i32, ptr %9, align 4, !tbaa !11
  %32 = icmp ne i32 %31, 0
  br i1 %32, label %33, label %35

33:                                               ; preds = %24
  %34 = load i32, ptr %9, align 4, !tbaa !11
  store i32 %34, ptr %4, align 4
  store i32 1, ptr %10, align 4
  br label %36

35:                                               ; preds = %24
  store i32 0, ptr %10, align 4
  br label %36

36:                                               ; preds = %35, %33
  call void @llvm.lifetime.end.p0(i64 4, ptr %9) #8
  %37 = load i32, ptr %10, align 4
  switch i32 %37, label %112 [
    i32 0, label %38
  ]

38:                                               ; preds = %36
  br label %39

39:                                               ; preds = %38, %19
  br label %40

40:                                               ; preds = %39
  br label %41

41:                                               ; preds = %40
  br label %42

42:                                               ; preds = %41
  %43 = load ptr, ptr %8, align 8, !tbaa !8
  %44 = getelementptr inbounds nuw %struct._structmodulestate, ptr %43, i32 0, i32 1
  %45 = load ptr, ptr %44, align 8, !tbaa !13
  %46 = icmp ne ptr %45, null
  br i1 %46, label %47, label %62

47:                                               ; preds = %42
  call void @llvm.lifetime.start.p0(i64 4, ptr %11) #8
  %48 = load ptr, ptr %6, align 8, !tbaa !8
  %49 = load ptr, ptr %8, align 8, !tbaa !8
  %50 = getelementptr inbounds nuw %struct._structmodulestate, ptr %49, i32 0, i32 1
  %51 = load ptr, ptr %50, align 8, !tbaa !13
  %52 = load ptr, ptr %7, align 8, !tbaa !8
  %53 = call i32 %48(ptr noundef %51, ptr noundef %52)
  store i32 %53, ptr %11, align 4, !tbaa !11
  %54 = load i32, ptr %11, align 4, !tbaa !11
  %55 = icmp ne i32 %54, 0
  br i1 %55, label %56, label %58

56:                                               ; preds = %47
  %57 = load i32, ptr %11, align 4, !tbaa !11
  store i32 %57, ptr %4, align 4
  store i32 1, ptr %10, align 4
  br label %59

58:                                               ; preds = %47
  store i32 0, ptr %10, align 4
  br label %59

59:                                               ; preds = %58, %56
  call void @llvm.lifetime.end.p0(i64 4, ptr %11) #8
  %60 = load i32, ptr %10, align 4
  switch i32 %60, label %112 [
    i32 0, label %61
  ]

61:                                               ; preds = %59
  br label %62

62:                                               ; preds = %61, %42
  br label %63

63:                                               ; preds = %62
  br label %64

64:                                               ; preds = %63
  br label %65

65:                                               ; preds = %64
  %66 = load ptr, ptr %8, align 8, !tbaa !8
  %67 = getelementptr inbounds nuw %struct._structmodulestate, ptr %66, i32 0, i32 2
  %68 = load ptr, ptr %67, align 8, !tbaa !14
  %69 = icmp ne ptr %68, null
  br i1 %69, label %70, label %85

70:                                               ; preds = %65
  call void @llvm.lifetime.start.p0(i64 4, ptr %12) #8
  %71 = load ptr, ptr %6, align 8, !tbaa !8
  %72 = load ptr, ptr %8, align 8, !tbaa !8
  %73 = getelementptr inbounds nuw %struct._structmodulestate, ptr %72, i32 0, i32 2
  %74 = load ptr, ptr %73, align 8, !tbaa !14
  %75 = load ptr, ptr %7, align 8, !tbaa !8
  %76 = call i32 %71(ptr noundef %74, ptr noundef %75)
  store i32 %76, ptr %12, align 4, !tbaa !11
  %77 = load i32, ptr %12, align 4, !tbaa !11
  %78 = icmp ne i32 %77, 0
  br i1 %78, label %79, label %81

79:                                               ; preds = %70
  %80 = load i32, ptr %12, align 4, !tbaa !11
  store i32 %80, ptr %4, align 4
  store i32 1, ptr %10, align 4
  br label %82

81:                                               ; preds = %70
  store i32 0, ptr %10, align 4
  br label %82

82:                                               ; preds = %81, %79
  call void @llvm.lifetime.end.p0(i64 4, ptr %12) #8
  %83 = load i32, ptr %10, align 4
  switch i32 %83, label %112 [
    i32 0, label %84
  ]

84:                                               ; preds = %82
  br label %85

85:                                               ; preds = %84, %65
  br label %86

86:                                               ; preds = %85
  br label %87

87:                                               ; preds = %86
  br label %88

88:                                               ; preds = %87
  %89 = load ptr, ptr %8, align 8, !tbaa !8
  %90 = getelementptr inbounds nuw %struct._structmodulestate, ptr %89, i32 0, i32 3
  %91 = load ptr, ptr %90, align 8, !tbaa !15
  %92 = icmp ne ptr %91, null
  br i1 %92, label %93, label %108

93:                                               ; preds = %88
  call void @llvm.lifetime.start.p0(i64 4, ptr %13) #8
  %94 = load ptr, ptr %6, align 8, !tbaa !8
  %95 = load ptr, ptr %8, align 8, !tbaa !8
  %96 = getelementptr inbounds nuw %struct._structmodulestate, ptr %95, i32 0, i32 3
  %97 = load ptr, ptr %96, align 8, !tbaa !15
  %98 = load ptr, ptr %7, align 8, !tbaa !8
  %99 = call i32 %94(ptr noundef %97, ptr noundef %98)
  store i32 %99, ptr %13, align 4, !tbaa !11
  %100 = load i32, ptr %13, align 4, !tbaa !11
  %101 = icmp ne i32 %100, 0
  br i1 %101, label %102, label %104

102:                                              ; preds = %93
  %103 = load i32, ptr %13, align 4, !tbaa !11
  store i32 %103, ptr %4, align 4
  store i32 1, ptr %10, align 4
  br label %105

104:                                              ; preds = %93
  store i32 0, ptr %10, align 4
  br label %105

105:                                              ; preds = %104, %102
  call void @llvm.lifetime.end.p0(i64 4, ptr %13) #8
  %106 = load i32, ptr %10, align 4
  switch i32 %106, label %112 [
    i32 0, label %107
  ]

107:                                              ; preds = %105
  br label %108

108:                                              ; preds = %107, %88
  br label %109

109:                                              ; preds = %108
  br label %110

110:                                              ; preds = %109
  br label %111

111:                                              ; preds = %110, %3
  store i32 0, ptr %4, align 4
  store i32 1, ptr %10, align 4
  br label %112

112:                                              ; preds = %111, %105, %82, %59, %36
  call void @llvm.lifetime.end.p0(i64 8, ptr %8) #8
  %113 = load i32, ptr %4, align 4
  ret i32 %113
}