; Function Attrs: nounwind uwtable
define internal i32 @_structmodule_traverse(ptr noundef readonly captures(none) %0, ptr noundef readonly captures(none) %1, ptr noundef %2) #0 {
  %4 = getelementptr i8, ptr %0, i64 32
  %.val = load ptr, ptr %4, align 8, !tbaa !3
  %.not = icmp eq ptr %.val, null
  br i1 %.not, label %24, label %5

5:                                                ; preds = %3
  %6 = load ptr, ptr %.val, align 8, !tbaa !12
  %.not44 = icmp eq ptr %6, null
  br i1 %.not44, label %9, label %7

7:                                                ; preds = %5
  %8 = tail call i32 %1(ptr noundef nonnull %6, ptr noundef %2) #7
  %.not45 = icmp eq i32 %8, 0
  br i1 %.not45, label %9, label %25

9:                                                ; preds = %5, %7
  %10 = getelementptr inbounds nuw i8, ptr %.val, i64 8
  %11 = load ptr, ptr %10, align 8, !tbaa !14
  %.not46 = icmp eq ptr %11, null
  br i1 %.not46, label %14, label %12

12:                                               ; preds = %9
  %13 = tail call i32 %1(ptr noundef nonnull %11, ptr noundef %2) #7
  %.not47 = icmp eq i32 %13, 0
  br i1 %.not47, label %14, label %25

14:                                               ; preds = %9, %12
  %15 = getelementptr inbounds nuw i8, ptr %.val, i64 16
  %16 = load ptr, ptr %15, align 8, !tbaa !15
  %.not48 = icmp eq ptr %16, null
  br i1 %.not48, label %19, label %17

17:                                               ; preds = %14
  %18 = tail call i32 %1(ptr noundef nonnull %16, ptr noundef %2) #7
  %.not49 = icmp eq i32 %18, 0
  br i1 %.not49, label %19, label %25

19:                                               ; preds = %14, %17
  %20 = getelementptr inbounds nuw i8, ptr %.val, i64 24
  %21 = load ptr, ptr %20, align 8, !tbaa !16
  %.not50 = icmp eq ptr %21, null
  br i1 %.not50, label %24, label %22

22:                                               ; preds = %19
  %23 = tail call i32 %1(ptr noundef nonnull %21, ptr noundef %2) #7
  %.not51 = icmp eq i32 %23, 0
  br i1 %.not51, label %24, label %25

24:                                               ; preds = %19, %22, %3
  br label %25

25:                                               ; preds = %7, %12, %17, %22, %24
  %.1 = phi i32 [ 0, %24 ], [ %23, %22 ], [ %18, %17 ], [ %13, %12 ], [ %8, %7 ]
  ret i32 %.1
}